target datalayout = "e-m:e-p270:32:32-p271:32:32-p272:64:64-i64:64-i128:128-f80:128-n8:16:32:64-S128"
target triple = "x86_64-pc-linux-gnu"

%struct.CommandSingle = type { i32, %union.anon.0 }
%union.anon.0 = type { %struct.EventCommandSingle }
%struct.EventCommandSingle = type { i8, i32, %struct.EventInfo }
%struct.EventInfo = type { i32, ptr, i8, ptr, ptr, i64, ptr, %union.anon.1 }
%union.anon.1 = type { %struct.anon.2 }
%struct.anon.2 = type { ptr, ptr, i8, %union.jvalue }
%union.jvalue = type { i64 }

; Function Attrs: nounwind uwtable
define internal zeroext i8 @enumForVMDeath(ptr noundef %0, ptr noundef %1) #0 {
  %3 = alloca i8, align 1
  %4 = alloca ptr, align 8
  %5 = alloca ptr, align 8
  %6 = alloca ptr, align 8
  %7 = alloca ptr, align 8
  store ptr %0, ptr %4, align 8
  store ptr %1, ptr %5, align 8
  %8 = load ptr, ptr %4, align 8
  store ptr %8, ptr %6, align 8
  %9 = load ptr, ptr %5, align 8
  store ptr %9, ptr %7, align 8
  %10 = load ptr, ptr %6, align 8
  %11 = getelementptr inbounds %struct.CommandSingle, ptr %10, i32 0, i32 0
  %12 = load i32, ptr %11, align 8
  %13 = icmp eq i32 %12, 11
  br i1 %13, label %14, label %24

14:                                               ; preds = %2
  %15 = load ptr, ptr %6, align 8
  %16 = getelementptr inbounds %struct.CommandSingle, ptr %15, i32 0, i32 1
  %17 = getelementptr inbounds %struct.EventCommandSingle, ptr %16, i32 0, i32 2
  %18 = getelementptr inbounds %struct.EventInfo, ptr %17, i32 0, i32 0
  %19 = load i32, ptr %18, align 8
  %20 = icmp eq i32 %19, 20
  br i1 %20, label %21, label %23

21:                                               ; preds = %14
  %22 = load ptr, ptr %7, align 8
  store i8 1, ptr %22, align 1
  store i8 0, ptr %3, align 1
  br label %25

23:                                               ; preds = %14
  br label %24

24:                                               ; preds = %23, %2
  store i8 1, ptr %3, align 1
  br label %25

25:                                               ; preds = %24, %21
  %26 = load i8, ptr %3, align 1
  ret i8 %26
}