; Function Attrs: mustprogress nofree norecurse nosync nounwind willreturn memory(argmem: readwrite) uwtable
define internal zeroext range(i8 0, 2) i8 @enumForVMDeath(ptr nocapture noundef readonly %0, ptr nocapture noundef writeonly %1) #4 {
  %3 = load i32, ptr %0, align 8
  %4 = icmp eq i32 %3, 11
  br i1 %4, label %5, label %10

5:                                                ; preds = %2
  %6 = getelementptr inbounds i8, ptr %0, i64 16
  %7 = load i32, ptr %6, align 8
  %8 = icmp eq i32 %7, 20
  br i1 %8, label %9, label %10

9:                                                ; preds = %5
  store i8 1, ptr %1, align 1
  br label %10

10:                                               ; preds = %2, %5, %9
  %.0 = phi i8 [ 0, %9 ], [ 1, %5 ], [ 1, %2 ]
  ret i8 %.0
}